target datalayout = "e-m:e-p270:32:32-p271:32:32-p272:64:64-i64:64-i128:128-f80:128-n8:16:32:64-S128"
target triple = "x86_64-pc-linux-gnu"

%struct.srun_timeout_msg = type { %struct.slurm_step_id_msg, i64 }
%struct.slurm_step_id_msg = type { i64, i32, i32, i32 }

@_timeout_handler.last_timeout = internal global i64 0, align 8
@.str.10 = private unnamed_addr constant [35 x i8] c"job time limit to be reached at %s\00", align 1

; Function Attrs: nounwind uwtable
define internal void @_timeout_handler(ptr noundef %0) #0 {
  %2 = alloca ptr, align 8
  store ptr %0, ptr %2, align 8
  %3 = load ptr, ptr %2, align 8
  %4 = getelementptr inbounds nuw %struct.srun_timeout_msg, ptr %3, i32 0, i32 1
  %5 = load i64, ptr %4, align 8
  %6 = load i64, ptr @_timeout_handler.last_timeout, align 8
  %7 = icmp ne i64 %5, %6
  br i1 %7, label %8, label %23

8:                                                ; preds = %1
  %9 = load ptr, ptr %2, align 8
  %10 = getelementptr inbounds nuw %struct.srun_timeout_msg, ptr %9, i32 0, i32 1
  %11 = load i64, ptr %10, align 8
  store i64 %11, ptr @_timeout_handler.last_timeout, align 8
  br label %12

12:                                               ; preds = %8
  br label %13

13:                                               ; preds = %12
  %14 = call i32 @get_log_level()
  %15 = icmp sge i32 %14, 4
  br i1 %15, label %16, label %20

16:                                               ; preds = %13
  %17 = load ptr, ptr %2, align 8
  %18 = getelementptr inbounds nuw %struct.srun_timeout_msg, ptr %17, i32 0, i32 1
  %19 = call ptr @slurm_ctime2(ptr noundef %18)
  call void (i32, ptr, ...) @log_var(i32 noundef 4, ptr noundef @.str.10, ptr noundef %19)
  br label %20

20:                                               ; preds = %16, %13
  br label %21

21:                                               ; preds = %20
  br label %22

22:                                               ; preds = %21
  br label %23

23:                                               ; preds = %22, %1
  ret void
}